#include <math.h>
#include <stdio.h>
#include <stdlib.h>
#include <string.h>

int main()
{
    int n,i,j,k;
    scanf("%d",&n);
    if(n<=4)
    printf("empty");
    else
    {
        for(i=3;i<=n-2;i++)
        {
            for(j=2;j<=i-1;j++)
                if(i%j==0)break;
            if(j>i-1)
            {
                for(k=2;k<=i+1;k++)
                    if((i+2)%k==0)break;
                if(k>i+1)
                    printf("%d %d\n",i,i+2);
                else;
            }
            else;
        }
    }
    getchar();
    getchar(); 
}