; ModuleID = '60/279.c'
source_filename = "60/279.c"
target datalayout = "e-m:e-p270:32:32-p271:32:32-p272:64:64-i64:64-f80:128-n8:16:32:64-S128"
target triple = "x86_64-pc-linux-gnu"

@.str = private unnamed_addr constant [3 x i8] c"%d\00", align 1
@.str.1 = private unnamed_addr constant [6 x i8] c"empty\00", align 1
@.str.2 = private unnamed_addr constant [7 x i8] c"%d %d\0A\00", align 1

; Function Attrs: noinline nounwind uwtable
define dso_local i32 @main() #0 {
  %1 = alloca i32, align 4
  %2 = alloca i32, align 4
  %3 = alloca i32, align 4
  %4 = alloca i32, align 4
  %5 = alloca i32, align 4
  store i32 0, i32* %1, align 4
  %6 = call i32 (i8*, ...) @__isoc99_scanf(i8* getelementptr inbounds ([3 x i8], [3 x i8]* @.str, i64 0, i64 0), i32* %2)
  %7 = load i32, i32* %2, align 4
  %8 = icmp sle i32 %7, 4
  br i1 %8, label %9, label %11

9:                                                ; preds = %0
  %10 = call i32 (i8*, ...) @printf(i8* getelementptr inbounds ([6 x i8], [6 x i8]* @.str.1, i64 0, i64 0))
  br label %73

11:                                               ; preds = %0
  store i32 3, i32* %3, align 4
  br label %12

12:                                               ; preds = %69, %11
  %13 = load i32, i32* %3, align 4
  %14 = load i32, i32* %2, align 4
  %15 = sub nsw i32 %14, 2
  %16 = icmp sle i32 %13, %15
  br i1 %16, label %17, label %72

17:                                               ; preds = %12
  store i32 2, i32* %4, align 4
  br label %18

18:                                               ; preds = %30, %17
  %19 = load i32, i32* %4, align 4
  %20 = load i32, i32* %3, align 4
  %21 = sub nsw i32 %20, 1
  %22 = icmp sle i32 %19, %21
  br i1 %22, label %23, label %33

23:                                               ; preds = %18
  %24 = load i32, i32* %3, align 4
  %25 = load i32, i32* %4, align 4
  %26 = srem i32 %24, %25
  %27 = icmp eq i32 %26, 0
  br i1 %27, label %28, label %29

28:                                               ; preds = %23
  br label %33

29:                                               ; preds = %23
  br label %30

30:                                               ; preds = %29
  %31 = load i32, i32* %4, align 4
  %32 = add nsw i32 %31, 1
  store i32 %32, i32* %4, align 4
  br label %18

33:                                               ; preds = %28, %18
  %34 = load i32, i32* %4, align 4
  %35 = load i32, i32* %3, align 4
  %36 = sub nsw i32 %35, 1
  %37 = icmp sgt i32 %34, %36
  br i1 %37, label %38, label %67

38:                                               ; preds = %33
  store i32 2, i32* %5, align 4
  br label %39

39:                                               ; preds = %52, %38
  %40 = load i32, i32* %5, align 4
  %41 = load i32, i32* %3, align 4
  %42 = add nsw i32 %41, 1
  %43 = icmp sle i32 %40, %42
  br i1 %43, label %44, label %55

44:                                               ; preds = %39
  %45 = load i32, i32* %3, align 4
  %46 = add nsw i32 %45, 2
  %47 = load i32, i32* %5, align 4
  %48 = srem i32 %46, %47
  %49 = icmp eq i32 %48, 0
  br i1 %49, label %50, label %51

50:                                               ; preds = %44
  br label %55

51:                                               ; preds = %44
  br label %52

52:                                               ; preds = %51
  %53 = load i32, i32* %5, align 4
  %54 = add nsw i32 %53, 1
  store i32 %54, i32* %5, align 4
  br label %39

55:                                               ; preds = %50, %39
  %56 = load i32, i32* %5, align 4
  %57 = load i32, i32* %3, align 4
  %58 = add nsw i32 %57, 1
  %59 = icmp sgt i32 %56, %58
  br i1 %59, label %60, label %65

60:                                               ; preds = %55
  %61 = load i32, i32* %3, align 4
  %62 = load i32, i32* %3, align 4
  %63 = add nsw i32 %62, 2
  %64 = call i32 (i8*, ...) @printf(i8* getelementptr inbounds ([7 x i8], [7 x i8]* @.str.2, i64 0, i64 0), i32 %61, i32 %63)
  br label %66

65:                                               ; preds = %55
  br label %66

66:                                               ; preds = %65, %60
  br label %68

67:                                               ; preds = %33
  br label %68

68:                                               ; preds = %67, %66
  br label %69

69:                                               ; preds = %68
  %70 = load i32, i32* %3, align 4
  %71 = add nsw i32 %70, 1
  store i32 %71, i32* %3, align 4
  br label %12

72:                                               ; preds = %12
  br label %73

73:                                               ; preds = %72, %9
  %74 = call i32 @getchar()
  %75 = call i32 @getchar()
  %76 = load i32, i32* %1, align 4
  ret i32 %76
}

declare dso_local i32 @__isoc99_scanf(i8*, ...) #1

declare dso_local i32 @printf(i8*, ...) #1

declare dso_local i32 @getchar() #1


!llvm.module.flags = !{!0}
!llvm.ident = !{!1}

!0 = !{i32 1, !"wchar_size", i32 4}
!1 = !{!"clang version 10.0.0-4ubuntu1 "}
